target datalayout = "e-m:e-p270:32:32-p271:32:32-p272:64:64-i64:64-i128:128-f80:128-n8:16:32:64-S128"
target triple = "x86_64-pc-linux-gnu"

%struct.AVFilterContext = type { ptr, ptr, ptr, ptr, ptr, i32, ptr, ptr, i32, ptr, ptr, i32, i32, ptr, ptr, ptr, ptr, i32, ptr, i32, i32 }
%struct.GBlurContext = type { ptr, float, float, i32, i32, i32, i32, i32, [4 x i32], [4 x i32], ptr, ptr, float, float, float, float, float, float, i32, ptr, ptr, ptr }
%struct.ThreadData = type { i32, i32 }

; Function Attrs: nounwind uwtable
define internal i32 @filter_vertically(ptr noundef %0, ptr noundef %1, i32 noundef %2, i32 noundef %3) #2 {
  %5 = alloca ptr, align 8
  %6 = alloca ptr, align 8
  %7 = alloca i32, align 4
  %8 = alloca i32, align 4
  %9 = alloca ptr, align 8
  %10 = alloca ptr, align 8
  %11 = alloca i32, align 4
  %12 = alloca i32, align 4
  %13 = alloca i32, align 4
  %14 = alloca i32, align 4
  %15 = alloca float, align 4
  %16 = alloca i32, align 4
  %17 = alloca float, align 4
  %18 = alloca ptr, align 8
  store ptr %0, ptr %5, align 8, !tbaa !4
  store ptr %1, ptr %6, align 8, !tbaa !84
  store i32 %2, ptr %7, align 4, !tbaa !45
  store i32 %3, ptr %8, align 4, !tbaa !45
  call void @llvm.lifetime.start.p0(i64 8, ptr %9) #8
  %19 = load ptr, ptr %5, align 8, !tbaa !4
  %20 = getelementptr inbounds nuw %struct.AVFilterContext, ptr %19, i32 0, i32 9
  %21 = load ptr, ptr %20, align 8, !tbaa !9
  store ptr %21, ptr %9, align 8, !tbaa !22
  call void @llvm.lifetime.start.p0(i64 8, ptr %10) #8
  %22 = load ptr, ptr %6, align 8, !tbaa !84
  store ptr %22, ptr %10, align 8, !tbaa !85
  call void @llvm.lifetime.start.p0(i64 4, ptr %11) #8
  %23 = load ptr, ptr %10, align 8, !tbaa !85
  %24 = getelementptr inbounds nuw %struct.ThreadData, ptr %23, i32 0, i32 0
  %25 = load i32, ptr %24, align 4, !tbaa !83
  store i32 %25, ptr %11, align 4, !tbaa !45
  call void @llvm.lifetime.start.p0(i64 4, ptr %12) #8
  %26 = load ptr, ptr %10, align 8, !tbaa !85
  %27 = getelementptr inbounds nuw %struct.ThreadData, ptr %26, i32 0, i32 1
  %28 = load i32, ptr %27, align 4, !tbaa !81
  store i32 %28, ptr %12, align 4, !tbaa !45
  call void @llvm.lifetime.start.p0(i64 4, ptr %13) #8
  %29 = load i32, ptr %12, align 4, !tbaa !45
  %30 = load i32, ptr %7, align 4, !tbaa !45
  %31 = mul nsw i32 %29, %30
  %32 = load i32, ptr %8, align 4, !tbaa !45
  %33 = sdiv i32 %31, %32
  store i32 %33, ptr %13, align 4, !tbaa !45
  call void @llvm.lifetime.start.p0(i64 4, ptr %14) #8
  %34 = load i32, ptr %12, align 4, !tbaa !45
  %35 = load i32, ptr %7, align 4, !tbaa !45
  %36 = add nsw i32 %35, 1
  %37 = mul nsw i32 %34, %36
  %38 = load i32, ptr %8, align 4, !tbaa !45
  %39 = sdiv i32 %37, %38
  store i32 %39, ptr %14, align 4, !tbaa !45
  call void @llvm.lifetime.start.p0(i64 4, ptr %15) #8
  %40 = load ptr, ptr %9, align 8, !tbaa !22
  %41 = getelementptr inbounds nuw %struct.GBlurContext, ptr %40, i32 0, i32 13
  %42 = load float, ptr %41, align 4, !tbaa !92
  store float %42, ptr %15, align 4, !tbaa !56
  call void @llvm.lifetime.start.p0(i64 4, ptr %16) #8
  %43 = load ptr, ptr %9, align 8, !tbaa !22
  %44 = getelementptr inbounds nuw %struct.GBlurContext, ptr %43, i32 0, i32 3
  %45 = load i32, ptr %44, align 8, !tbaa !41
  store i32 %45, ptr %16, align 4, !tbaa !45
  call void @llvm.lifetime.start.p0(i64 4, ptr %17) #8
  %46 = load ptr, ptr %9, align 8, !tbaa !22
  %47 = getelementptr inbounds nuw %struct.GBlurContext, ptr %46, i32 0, i32 17
  %48 = load float, ptr %47, align 4, !tbaa !93
  store float %48, ptr %17, align 4, !tbaa !56
  call void @llvm.lifetime.start.p0(i64 8, ptr %18) #8
  %49 = load ptr, ptr %9, align 8, !tbaa !22
  %50 = getelementptr inbounds nuw %struct.GBlurContext, ptr %49, i32 0, i32 10
  %51 = load ptr, ptr %50, align 8, !tbaa !47
  store ptr %51, ptr %18, align 8, !tbaa !48
  %52 = load ptr, ptr %9, align 8, !tbaa !22
  %53 = getelementptr inbounds nuw %struct.GBlurContext, ptr %52, i32 0, i32 20
  %54 = load ptr, ptr %53, align 8, !tbaa !94
  %55 = load ptr, ptr %18, align 8, !tbaa !48
  %56 = load i32, ptr %12, align 4, !tbaa !45
  %57 = load i32, ptr %11, align 4, !tbaa !45
  %58 = load i32, ptr %13, align 4, !tbaa !45
  %59 = load i32, ptr %14, align 4, !tbaa !45
  %60 = load i32, ptr %16, align 4, !tbaa !45
  %61 = load float, ptr %17, align 4, !tbaa !56
  %62 = load float, ptr %15, align 4, !tbaa !56
  call void %54(ptr noundef %55, i32 noundef %56, i32 noundef %57, i32 noundef %58, i32 noundef %59, i32 noundef %60, float noundef %61, float noundef %62)
  call void @llvm.lifetime.end.p0(i64 8, ptr %18) #8
  call void @llvm.lifetime.end.p0(i64 4, ptr %17) #8
  call void @llvm.lifetime.end.p0(i64 4, ptr %16) #8
  call void @llvm.lifetime.end.p0(i64 4, ptr %15) #8
  call void @llvm.lifetime.end.p0(i64 4, ptr %14) #8
  call void @llvm.lifetime.end.p0(i64 4, ptr %13) #8
  call void @llvm.lifetime.end.p0(i64 4, ptr %12) #8
  call void @llvm.lifetime.end.p0(i64 4, ptr %11) #8
  call void @llvm.lifetime.end.p0(i64 8, ptr %10) #8
  call void @llvm.lifetime.end.p0(i64 8, ptr %9) #8
  ret i32 0
}