; Function Attrs: nounwind uwtable
define internal noundef i32 @filter_vertically(ptr noundef readonly captures(none) %0, ptr noundef readonly captures(none) %1, i32 noundef %2, i32 noundef %3) #2 {
  %5 = getelementptr inbounds nuw i8, ptr %0, i64 72
  %6 = load ptr, ptr %5, align 8, !tbaa !4
  %7 = load i32, ptr %1, align 4, !tbaa !60
  %8 = getelementptr inbounds nuw i8, ptr %1, i64 4
  %9 = load i32, ptr %8, align 4, !tbaa !58
  %10 = mul nsw i32 %9, %2
  %11 = sdiv i32 %10, %3
  %12 = add nsw i32 %2, 1
  %13 = mul nsw i32 %9, %12
  %14 = sdiv i32 %13, %3
  %15 = getelementptr inbounds nuw i8, ptr %6, i64 92
  %16 = load float, ptr %15, align 4, !tbaa !81
  %17 = getelementptr inbounds nuw i8, ptr %6, i64 16
  %18 = load i32, ptr %17, align 8, !tbaa !38
  %19 = getelementptr inbounds nuw i8, ptr %6, i64 108
  %20 = load float, ptr %19, align 4, !tbaa !82
  %21 = getelementptr inbounds nuw i8, ptr %6, i64 72
  %22 = load ptr, ptr %21, align 8, !tbaa !45
  %23 = getelementptr inbounds nuw i8, ptr %6, i64 128
  %24 = load ptr, ptr %23, align 8, !tbaa !76
  tail call void %24(ptr noundef %22, i32 noundef %9, i32 noundef %7, i32 noundef %11, i32 noundef %14, i32 noundef %18, float noundef %20, float noundef %16) #8
  ret i32 0
}